
 Start  Stop   Length Name                   Class
 00000H 001FFH 00200H STACK                  STACK
 00200H 00481H 00282H DATA                   DATA
 00482H 004EBH 0006AH CODE                   CODE
 004ECH 006B1H 001C6H LIBCODE                CODE

  Address         Publics by Name

 0000:0006  Abs  BAUD1200
 0000:000E  Abs  BAUD14400
 0000:0010  Abs  BAUD19200
 0000:0008  Abs  BAUD2400
 0000:0002  Abs  BAUD300
 0000:000A  Abs  BAUD4800
 0000:0000  Abs  BAUD50
 0000:0004  Abs  BAUD600
 0000:000C  Abs  BAUD9600
 0000:0003  Abs  COM1
 0000:0002  Abs  COM2
 0020:026A       COMMSERROR
 004E:0075       COMMSINTR
 0020:0000       COUNTDOWN
 0000:0010  Abs  ERR_BREAK
 0000:2000  Abs  ERR_CHECKSUM
 0000:0800  Abs  ERR_DATA_TMOUT
 0000:0008  Abs  ERR_FRAME
 0000:0400  Abs  ERR_NO_CABLE
 0000:0002  Abs  ERR_OVERRUN
 0000:0004  Abs  ERR_PARITY
 0000:4000  Abs  ERR_RX_OVRFLW
 0000:1000  Abs  ERR_SYNC_TMOUT
 0000:8000  Abs  ERR_TX_OVRFLW
 004E:000C       INITCOMMS
 004E:013A       READDATA
 004E:00AE       RXINTR
 004E:00F3       SENDDATA
 004E:0130       SENDPACKET
 004E:006B       STOPCOMMS
 004E:015D       SYNCCOMMS

  Address         Publics by Value

 0000:0000  Abs  BAUD50
 0000:0002  Abs  BAUD300
 0000:0002  Abs  ERR_OVERRUN
 0000:0002  Abs  COM2
 0000:0003  Abs  COM1
 0000:0004  Abs  ERR_PARITY
 0000:0004  Abs  BAUD600
 0000:0006  Abs  BAUD1200
 0000:0008  Abs  ERR_FRAME
 0000:0008  Abs  BAUD2400
 0000:000A  Abs  BAUD4800
 0000:000C  Abs  BAUD9600
 0000:000E  Abs  BAUD14400
 0000:0010  Abs  ERR_BREAK
 0000:0010  Abs  BAUD19200
 0020:0000       COUNTDOWN
 0000:0400  Abs  ERR_NO_CABLE
 0020:026A       COMMSERROR
 004E:000C       INITCOMMS
 004E:006B       STOPCOMMS
 004E:0075       COMMSINTR
 004E:00AE       RXINTR
 004E:00F3       SENDDATA
 004E:0130       SENDPACKET
 004E:013A       READDATA
 004E:015D       SYNCCOMMS
 0000:0800  Abs  ERR_DATA_TMOUT
 0000:1000  Abs  ERR_SYNC_TMOUT
 0000:2000  Abs  ERR_CHECKSUM
 0000:4000  Abs  ERR_RX_OVRFLW
 0000:8000  Abs  ERR_TX_OVRFLW

Program entry point at 0048:0002
